; Function Attrs: null_pointer_is_valid sspstrong uwtable
define internal i32 @dissect_mstp_wtap(ptr noundef %0, ptr noundef initializes((112, 160), (208, 256)) %1, ptr noundef %2, ptr readnone captures(none) %3) #0 {
  %5 = getelementptr inbounds nuw i8, ptr %1, i64 136
  %6 = load i32, ptr @mstp_address_type, align 4
  %7 = tail call ptr @tvb_get_ptr(ptr noundef %0, i32 noundef 3, i32 noundef 1)
  store i32 %6, ptr %5, align 8
  %8 = getelementptr inbounds nuw i8, ptr %1, i64 140
  store i32 1, ptr %8, align 4
  %9 = getelementptr inbounds nuw i8, ptr %1, i64 144
  store ptr %7, ptr %9, align 8
  %10 = getelementptr inbounds nuw i8, ptr %1, i64 152
  store ptr null, ptr %10, align 8
  %11 = getelementptr inbounds nuw i8, ptr %1, i64 232
  store i32 %6, ptr %11, align 8
  %12 = getelementptr inbounds nuw i8, ptr %1, i64 236
  store i32 1, ptr %12, align 4
  %13 = getelementptr inbounds nuw i8, ptr %1, i64 240
  store ptr %7, ptr %13, align 8
  %14 = getelementptr inbounds nuw i8, ptr %1, i64 248
  store ptr null, ptr %14, align 8
  %15 = getelementptr inbounds nuw i8, ptr %1, i64 112
  %16 = load i32, ptr @mstp_address_type, align 4
  %17 = tail call ptr @tvb_get_ptr(ptr noundef %0, i32 noundef 4, i32 noundef 1)
  store i32 %16, ptr %15, align 8
  %18 = getelementptr inbounds nuw i8, ptr %1, i64 116
  store i32 1, ptr %18, align 4
  %19 = getelementptr inbounds nuw i8, ptr %1, i64 120
  store ptr %17, ptr %19, align 8
  %20 = getelementptr inbounds nuw i8, ptr %1, i64 128
  store ptr null, ptr %20, align 8
  %21 = getelementptr inbounds nuw i8, ptr %1, i64 208
  store i32 %16, ptr %21, align 8
  %22 = getelementptr inbounds nuw i8, ptr %1, i64 212
  store i32 1, ptr %22, align 4
  %23 = getelementptr inbounds nuw i8, ptr %1, i64 216
  store ptr %17, ptr %23, align 8
  %24 = getelementptr inbounds nuw i8, ptr %1, i64 224
  store ptr null, ptr %24, align 8
  %25 = tail call zeroext i8 @tvb_get_uint8(ptr noundef %0, i32 noundef 2)
  %26 = tail call zeroext i8 @tvb_get_uint8(ptr noundef %0, i32 noundef 3)
  %27 = tail call zeroext i8 @tvb_get_uint8(ptr noundef %0, i32 noundef 4)
  %28 = load i32, ptr @proto_mstp, align 4
  %29 = zext i8 %27 to i32
  %30 = zext i8 %26 to i32
  %31 = zext i8 %25 to i32
  %32 = tail call ptr @val_to_str(i32 noundef %31, ptr noundef nonnull @bacnet_mstp_frame_type_name, ptr noundef nonnull @.str)
  %33 = tail call ptr (ptr, i32, ptr, i32, i32, ptr, ...) @proto_tree_add_protocol_format(ptr noundef %2, i32 noundef %28, ptr noundef %0, i32 noundef 0, i32 noundef 8, ptr noundef nonnull @.str.56, i32 noundef %29, i32 noundef %30, ptr noundef %32)
  %34 = load i32, ptr @ett_bacnet_mstp, align 4
  %35 = tail call ptr @proto_item_add_subtree(ptr noundef %33, i32 noundef %34)
  %36 = load i32, ptr @hf_mstp_preamble_55, align 4
  %37 = tail call ptr @proto_tree_add_item(ptr noundef %35, i32 noundef %36, ptr noundef %0, i32 noundef 0, i32 noundef 1, i32 noundef -2147483648)
  %38 = load i32, ptr @hf_mstp_preamble_FF, align 4
  %39 = tail call ptr @proto_tree_add_item(ptr noundef %35, i32 noundef %38, ptr noundef %0, i32 noundef 1, i32 noundef 1, i32 noundef -2147483648)
  tail call void @dissect_mstp(ptr noundef %0, ptr noundef %1, ptr noundef %2, ptr noundef %35, i32 noundef 2)
  %40 = tail call i32 @tvb_captured_length(ptr noundef %0)
  ret i32 %40
}